target datalayout = "e-m:e-p270:32:32-p271:32:32-p272:64:64-i64:64-i128:128-f80:128-n8:16:32:64-S128"
target triple = "x86_64-pc-linux-gnu"

; Function Attrs: mustprogress uwtable
define linkonce_odr hidden void @_ZN9hb_font_t30get_glyph_origin_for_directionEj14hb_direction_tPiS1_(ptr noundef nonnull align 8 dereferenceable(192) %0, i32 noundef %1, i32 noundef %2, ptr noundef %3, ptr noundef %4) #0 comdat align 2 {
  %6 = alloca ptr, align 8
  %7 = alloca i32, align 4
  %8 = alloca i32, align 4
  %9 = alloca ptr, align 8
  %10 = alloca ptr, align 8
  store ptr %0, ptr %6, align 8
  store i32 %1, ptr %7, align 4
  store i32 %2, ptr %8, align 4
  store ptr %3, ptr %9, align 8
  store ptr %4, ptr %10, align 8
  %11 = load ptr, ptr %6, align 8
  %12 = load i32, ptr %8, align 4
  %13 = and i32 %12, -2
  %14 = icmp eq i32 %13, 4
  br i1 %14, label %15, label %19

15:                                               ; preds = %5
  %16 = load i32, ptr %7, align 4
  %17 = load ptr, ptr %9, align 8
  %18 = load ptr, ptr %10, align 8
  call void @_ZN9hb_font_t32get_glyph_h_origin_with_fallbackEjPiS0_(ptr noundef nonnull align 8 dereferenceable(192) %11, i32 noundef %16, ptr noundef %17, ptr noundef %18)
  br label %23

19:                                               ; preds = %5
  %20 = load i32, ptr %7, align 4
  %21 = load ptr, ptr %9, align 8
  %22 = load ptr, ptr %10, align 8
  call void @_ZN9hb_font_t32get_glyph_v_origin_with_fallbackEjPiS0_(ptr noundef nonnull align 8 dereferenceable(192) %11, i32 noundef %20, ptr noundef %21, ptr noundef %22)
  br label %23

23:                                               ; preds = %19, %15
  ret void
}

; Function Attrs: mustprogress uwtable
define hidden void @hb_font_get_glyph_origin_for_direction(ptr noundef %0, i32 noundef %1, i32 noundef %2, ptr noundef %3, ptr noundef %4) #0 {
  %6 = alloca ptr, align 8
  %7 = alloca i32, align 4
  %8 = alloca i32, align 4
  %9 = alloca ptr, align 8
  %10 = alloca ptr, align 8
  store ptr %0, ptr %6, align 8
  store i32 %1, ptr %7, align 4
  store i32 %2, ptr %8, align 4
  store ptr %3, ptr %9, align 8
  store ptr %4, ptr %10, align 8
  %11 = load ptr, ptr %6, align 8
  %12 = load i32, ptr %7, align 4
  %13 = load i32, ptr %8, align 4
  %14 = load ptr, ptr %9, align 8
  %15 = load ptr, ptr %10, align 8
  call void @_ZN9hb_font_t30get_glyph_origin_for_directionEj14hb_direction_tPiS1_(ptr noundef nonnull align 8 dereferenceable(192) %11, i32 noundef %12, i32 noundef %13, ptr noundef %14, ptr noundef %15)
  ret void
}