; Function Attrs: mustprogress uwtable
define hidden void @hb_font_get_glyph_origin_for_direction(ptr noundef %0, i32 noundef %1, i32 noundef %2, ptr noundef %3, ptr noundef %4) local_unnamed_addr #1 {
  %6 = and i32 %2, -2
  %7 = icmp eq i32 %6, 4
  br i1 %7, label %8, label %9

8:                                                ; preds = %5
  tail call void @_ZN9hb_font_t32get_glyph_h_origin_with_fallbackEjPiS0_(ptr noundef nonnull align 8 dereferenceable(192) %0, i32 noundef %1, ptr noundef %3, ptr noundef %4)
  br label %_ZN9hb_font_t30get_glyph_origin_for_directionEj14hb_direction_tPiS1_.exit

9:                                                ; preds = %5
  tail call void @_ZN9hb_font_t32get_glyph_v_origin_with_fallbackEjPiS0_(ptr noundef nonnull align 8 dereferenceable(192) %0, i32 noundef %1, ptr noundef %3, ptr noundef %4)
  br label %_ZN9hb_font_t30get_glyph_origin_for_directionEj14hb_direction_tPiS1_.exit

_ZN9hb_font_t30get_glyph_origin_for_directionEj14hb_direction_tPiS1_.exit: ; preds = %8, %9
  ret void
}